(lp0
(S'elfflags'
p1
ccopy_reg
_reconstructor
p2
(cino.utils
SpaceList
p3
c__builtin__
list
p4
(lp5
S'-Os'
p6
aS'-Wl,--gc-sections'
p7
aS'-mmcu=atmega328p'
p8
atp9
Rp10
tp11
a(S'version.txt'
p12
S'/usr/share/arduino/lib/version.txt'
p13
tp14
a(S'cc'
p15
S'/usr/bin/avr-gcc'
p16
tp17
a(S'arduino_libraries_dir'
p18
S'/usr/share/arduino/libraries'
p19
tp20
a(S'arduino_core_dir'
p21
S'/usr/share/arduino/hardware/arduino/cores/arduino'
p22
tp23
a(S'boards.txt'
p24
S'/usr/share/arduino/hardware/arduino/boards.txt'
p25
tp26
a(S'cxxflags'
p27
g2
(g3
g4
(lp28
S'-fno-exceptions'
p29
atp30
Rp31
tp32
a(S'arduino_variants_dir'
p33
S'/usr/share/arduino/hardware/arduino/variants'
p34
tp35
a(S'ar'
p36
S'/usr/bin/avr-ar'
p37
tp38
a(S'names'
p39
(dp40
S'cpp'
p41
S'%s.cpp'
p42
sS'obj'
p43
S'%s.o'
p44
sS'lib'
p45
S'lib%s.a'
p46
sS'deps'
p47
S'%s.d'
p48
stp49
a(S'cflags'
p50
g2
(g3
g4
(lp51
g8
aS'-ffunction-sections'
p52
aS'-fdata-sections'
p53
aS'-g'
p54
ag6
aS'-w'
p55
aS'-DF_CPU=16000000L'
p56
aS'-DARDUINO=100'
p57
aS'-I/usr/share/arduino/hardware/arduino/cores/arduino'
p58
aS'-I/usr/share/arduino/hardware/arduino/variants/standard'
p59
atp60
Rp61
tp62
a(S'arduino_lib_version'
p63
g2
(cino.environment
Version
p64
c__builtin__
tuple
p65
(I1
I0
tp66
tp67
Rp68
tp69
a(S'objcopy'
p70
S'/usr/bin/avr-objcopy'
p71
tp72
a(S'board_models'
p73
cino.environment
BoardModels
p74
((lp75
(lp76
S'uno'
p77
a(dp78
S'bootloader'
p79
(dp80
S'extended_fuses'
p81
S'0x05'
p82
sS'high_fuses'
p83
S'0xde'
p84
sS'low_fuses'
p85
S'0xff'
p86
sS'lock_bits'
p87
S'0x0F'
p88
sS'file'
p89
S'optiboot_atmega328.hex'
p90
sS'path'
p91
S'optiboot'
p92
sS'unlock_bits'
p93
S'0x3F'
p94
ssS'upload'
p95
(dp96
S'protocol'
p97
S'arduino'
p98
sS'maximum_size'
p99
S'32256'
p100
sS'speed'
p101
S'115200'
p102
ssS'build'
p103
(dp104
S'core'
p105
S'arduino'
p106
sS'mcu'
p107
S'atmega328p'
p108
sS'f_cpu'
p109
S'16000000L'
p110
sS'variant'
p111
S'standard'
p112
ssS'name'
p113
S'Arduino Uno'
p114
saa(lp115
S'atmega328'
p116
a(dp117
S'bootloader'
p118
(dp119
S'extended_fuses'
p120
S'0x05'
p121
sS'high_fuses'
p122
S'0xDA'
p123
sS'low_fuses'
p124
S'0xFF'
p125
sS'lock_bits'
p126
S'0x0F'
p127
sS'file'
p128
S'ATmegaBOOT_168_atmega328.hex'
p129
sS'path'
p130
S'atmega'
p131
sS'unlock_bits'
p132
S'0x3F'
p133
ssS'upload'
p134
(dp135
S'protocol'
p136
S'arduino'
p137
sS'maximum_size'
p138
S'30720'
p139
sS'speed'
p140
S'57600'
p141
ssS'build'
p142
(dp143
S'core'
p144
S'arduino'
p145
sS'mcu'
p146
S'atmega328p'
p147
sS'f_cpu'
p148
S'16000000L'
p149
sS'variant'
p150
S'standard'
p151
ssS'name'
p152
S'Arduino Duemilanove w/ ATmega328'
p153
saa(lp154
S'diecimila'
p155
a(dp156
S'bootloader'
p157
(dp158
S'extended_fuses'
p159
S'0x00'
p160
sS'high_fuses'
p161
S'0xdd'
p162
sS'low_fuses'
p163
S'0xff'
p164
sS'lock_bits'
p165
S'0x0F'
p166
sS'file'
p167
S'ATmegaBOOT_168_diecimila.hex'
p168
sS'path'
p169
S'atmega'
p170
sS'unlock_bits'
p171
S'0x3F'
p172
ssS'upload'
p173
(dp174
S'protocol'
p175
S'arduino'
p176
sS'maximum_size'
p177
S'14336'
p178
sS'speed'
p179
S'19200'
p180
ssS'build'
p181
(dp182
S'core'
p183
S'arduino'
p184
sS'mcu'
p185
S'atmega168'
p186
sS'f_cpu'
p187
S'16000000L'
p188
sS'variant'
p189
S'standard'
p190
ssS'name'
p191
S'Arduino Diecimila or Duemilanove w/ ATmega168'
p192
saa(lp193
S'nano328'
p194
a(dp195
S'bootloader'
p196
(dp197
S'extended_fuses'
p198
S'0x05'
p199
sS'high_fuses'
p200
S'0xDA'
p201
sS'low_fuses'
p202
S'0xFF'
p203
sS'lock_bits'
p204
S'0x0F'
p205
sS'file'
p206
S'ATmegaBOOT_168_atmega328.hex'
p207
sS'path'
p208
S'atmega'
p209
sS'unlock_bits'
p210
S'0x3F'
p211
ssS'upload'
p212
(dp213
S'protocol'
p214
S'arduino'
p215
sS'maximum_size'
p216
S'30720'
p217
sS'speed'
p218
S'57600'
p219
ssS'build'
p220
(dp221
S'core'
p222
S'arduino'
p223
sS'mcu'
p224
S'atmega328p'
p225
sS'f_cpu'
p226
S'16000000L'
p227
sS'variant'
p228
S'eightanaloginputs'
p229
ssS'name'
p230
S'Arduino Nano w/ ATmega328'
p231
saa(lp232
S'nano'
p233
a(dp234
S'bootloader'
p235
(dp236
S'extended_fuses'
p237
S'0x00'
p238
sS'high_fuses'
p239
S'0xdd'
p240
sS'low_fuses'
p241
S'0xff'
p242
sS'lock_bits'
p243
S'0x0F'
p244
sS'file'
p245
S'ATmegaBOOT_168_diecimila.hex'
p246
sS'path'
p247
S'atmega'
p248
sS'unlock_bits'
p249
S'0x3F'
p250
ssS'upload'
p251
(dp252
S'protocol'
p253
S'arduino'
p254
sS'maximum_size'
p255
S'14336'
p256
sS'speed'
p257
S'19200'
p258
ssS'build'
p259
(dp260
S'core'
p261
S'arduino'
p262
sS'mcu'
p263
S'atmega168'
p264
sS'f_cpu'
p265
S'16000000L'
p266
sS'variant'
p267
S'eightanaloginputs'
p268
ssS'name'
p269
S'Arduino Nano w/ ATmega168'
p270
saa(lp271
S'mega2560'
p272
a(dp273
S'bootloader'
p274
(dp275
S'extended_fuses'
p276
S'0xFD'
p277
sS'high_fuses'
p278
S'0xD8'
p279
sS'low_fuses'
p280
S'0xFF'
p281
sS'lock_bits'
p282
S'0x0F'
p283
sS'file'
p284
S'stk500boot_v2_mega2560.hex'
p285
sS'path'
p286
S'stk500v2'
p287
sS'unlock_bits'
p288
S'0x3F'
p289
ssS'upload'
p290
(dp291
S'protocol'
p292
S'stk500v2'
p293
sS'maximum_size'
p294
S'258048'
p295
sS'speed'
p296
S'115200'
p297
ssS'build'
p298
(dp299
S'core'
p300
S'arduino'
p301
sS'mcu'
p302
S'atmega2560'
p303
sS'f_cpu'
p304
S'16000000L'
p305
sS'variant'
p306
S'mega'
p307
ssS'name'
p308
S'Arduino Mega 2560 or Mega ADK'
p309
saa(lp310
S'mega'
p311
a(dp312
S'bootloader'
p313
(dp314
S'extended_fuses'
p315
S'0xF5'
p316
sS'high_fuses'
p317
S'0xDA'
p318
sS'low_fuses'
p319
S'0xFF'
p320
sS'lock_bits'
p321
S'0x0F'
p322
sS'file'
p323
S'ATmegaBOOT_168_atmega1280.hex'
p324
sS'path'
p325
S'atmega'
p326
sS'unlock_bits'
p327
S'0x3F'
p328
ssS'upload'
p329
(dp330
S'protocol'
p331
S'arduino'
p332
sS'maximum_size'
p333
S'126976'
p334
sS'speed'
p335
S'57600'
p336
ssS'build'
p337
(dp338
S'core'
p339
S'arduino'
p340
sS'mcu'
p341
S'atmega1280'
p342
sS'f_cpu'
p343
S'16000000L'
p344
sS'variant'
p345
S'mega'
p346
ssS'name'
p347
S'Arduino Mega (ATmega1280)'
p348
saa(lp349
S'leonardo'
p350
a(dp351
S'bootloader'
p352
(dp353
S'extended_fuses'
p354
S'0xcb'
p355
sS'high_fuses'
p356
S'0xd8'
p357
sS'low_fuses'
p358
S'0xff'
p359
sS'lock_bits'
p360
S'0x2F'
p361
sS'file'
p362
S'Caterina-Leonardo.hex'
p363
sS'path'
p364
S'caterina'
p365
sS'unlock_bits'
p366
S'0x3F'
p367
ssS'upload'
p368
(dp369
S'protocol'
p370
S'avr109'
p371
sS'maximum_size'
p372
S'28672'
p373
sS'speed'
p374
S'57600'
p375
sS'disable_flushing'
p376
S'true'
p377
ssS'build'
p378
(dp379
S'core'
p380
S'arduino'
p381
sS'f_cpu'
p382
S'16000000L'
p383
sS'vid'
p384
S'0x2341'
p385
sS'pid'
p386
S'0x8036'
p387
sS'variant'
p388
S'leonardo'
p389
sS'mcu'
p390
S'atmega32u4'
p391
ssS'name'
p392
S'Arduino Leonardo'
p393
saa(lp394
S'mini328'
p395
a(dp396
S'bootloader'
p397
(dp398
S'extended_fuses'
p399
S'0x05'
p400
sS'high_fuses'
p401
S'0xd8'
p402
sS'low_fuses'
p403
S'0xff'
p404
sS'lock_bits'
p405
S'0x0F'
p406
sS'file'
p407
S'optiboot_atmega328-Mini.hex'
p408
sS'path'
p409
S'optiboot'
p410
sS'unlock_bits'
p411
S'0x3F'
p412
ssS'upload'
p413
(dp414
S'protocol'
p415
S'arduino'
p416
sS'maximum_size'
p417
S'28672'
p418
sS'speed'
p419
S'115200'
p420
ssS'build'
p421
(dp422
S'core'
p423
S'arduino'
p424
sS'mcu'
p425
S'atmega328p'
p426
sS'f_cpu'
p427
S'16000000L'
p428
sS'variant'
p429
S'eightanaloginputs'
p430
ssS'name'
p431
S'Arduino Mini w/ ATmega328'
p432
saa(lp433
S'mini'
p434
a(dp435
S'bootloader'
p436
(dp437
S'extended_fuses'
p438
S'0x00'
p439
sS'high_fuses'
p440
S'0xdd'
p441
sS'low_fuses'
p442
S'0xff'
p443
sS'lock_bits'
p444
S'0x0F'
p445
sS'file'
p446
S'ATmegaBOOT_168_ng.hex'
p447
sS'path'
p448
S'atmega'
p449
sS'unlock_bits'
p450
S'0x3F'
p451
ssS'upload'
p452
(dp453
S'protocol'
p454
S'arduino'
p455
sS'maximum_size'
p456
S'14336'
p457
sS'speed'
p458
S'19200'
p459
ssS'build'
p460
(dp461
S'core'
p462
S'arduino'
p463
sS'mcu'
p464
S'atmega168'
p465
sS'f_cpu'
p466
S'16000000L'
p467
sS'variant'
p468
S'eightanaloginputs'
p469
ssS'name'
p470
S'Arduino Mini w/ ATmega168'
p471
saa(lp472
S'ethernet'
p473
a(dp474
S'bootloader'
p475
(dp476
S'extended_fuses'
p477
S'0x05'
p478
sS'high_fuses'
p479
S'0xde'
p480
sS'low_fuses'
p481
S'0xff'
p482
sS'lock_bits'
p483
S'0x0F'
p484
sS'file'
p485
S'optiboot_atmega328.hex'
p486
sS'path'
p487
S'optiboot'
p488
sS'unlock_bits'
p489
S'0x3F'
p490
ssS'upload'
p491
(dp492
S'protocol'
p493
S'arduino'
p494
sS'maximum_size'
p495
S'32256'
p496
sS'speed'
p497
S'115200'
p498
ssS'build'
p499
(dp500
S'variant'
p501
S'standard'
p502
sS'mcu'
p503
S'atmega328p'
p504
sS'f_cpu'
p505
S'16000000L'
p506
sS'core'
p507
S'arduino'
p508
ssS'name'
p509
S'Arduino Ethernet'
p510
saa(lp511
S'fio'
p512
a(dp513
S'bootloader'
p514
(dp515
S'extended_fuses'
p516
S'0x05'
p517
sS'high_fuses'
p518
S'0xDA'
p519
sS'low_fuses'
p520
S'0xFF'
p521
sS'lock_bits'
p522
S'0x0F'
p523
sS'file'
p524
S'ATmegaBOOT_168_atmega328_pro_8MHz.hex'
p525
sS'path'
p526
S'arduino:atmega'
p527
sS'unlock_bits'
p528
S'0x3F'
p529
ssS'upload'
p530
(dp531
S'protocol'
p532
S'arduino'
p533
sS'maximum_size'
p534
S'30720'
p535
sS'speed'
p536
S'57600'
p537
ssS'build'
p538
(dp539
S'core'
p540
S'arduino'
p541
sS'mcu'
p542
S'atmega328p'
p543
sS'f_cpu'
p544
S'8000000L'
p545
sS'variant'
p546
S'eightanaloginputs'
p547
ssS'name'
p548
S'Arduino Fio'
p549
saa(lp550
S'bt328'
p551
a(dp552
S'bootloader'
p553
(dp554
S'extended_fuses'
p555
S'0x05'
p556
sS'high_fuses'
p557
S'0xd8'
p558
sS'low_fuses'
p559
S'0xff'
p560
sS'lock_bits'
p561
S'0x0F'
p562
sS'file'
p563
S'ATmegaBOOT_168_atmega328_bt.hex'
p564
sS'path'
p565
S'bt'
p566
sS'unlock_bits'
p567
S'0x3F'
p568
ssS'upload'
p569
(dp570
S'protocol'
p571
S'arduino'
p572
sS'maximum_size'
p573
S'28672'
p574
sS'speed'
p575
S'19200'
p576
sS'disable_flushing'
p577
S'true'
p578
ssS'build'
p579
(dp580
S'core'
p581
S'arduino'
p582
sS'mcu'
p583
S'atmega328p'
p584
sS'f_cpu'
p585
S'16000000L'
p586
sS'variant'
p587
S'eightanaloginputs'
p588
ssS'name'
p589
S'Arduino BT w/ ATmega328'
p590
saa(lp591
S'bt'
p592
a(dp593
S'bootloader'
p594
(dp595
S'extended_fuses'
p596
S'0x00'
p597
sS'high_fuses'
p598
S'0xdd'
p599
sS'low_fuses'
p600
S'0xff'
p601
sS'lock_bits'
p602
S'0x0F'
p603
sS'file'
p604
S'ATmegaBOOT_168.hex'
p605
sS'path'
p606
S'bt'
p607
sS'unlock_bits'
p608
S'0x3F'
p609
ssS'upload'
p610
(dp611
S'protocol'
p612
S'arduino'
p613
sS'maximum_size'
p614
S'14336'
p615
sS'speed'
p616
S'19200'
p617
sS'disable_flushing'
p618
S'true'
p619
ssS'build'
p620
(dp621
S'core'
p622
S'arduino'
p623
sS'mcu'
p624
S'atmega168'
p625
sS'f_cpu'
p626
S'16000000L'
p627
sS'variant'
p628
S'eightanaloginputs'
p629
ssS'name'
p630
S'Arduino BT w/ ATmega168'
p631
saa(lp632
S'lilypad328'
p633
a(dp634
S'bootloader'
p635
(dp636
S'extended_fuses'
p637
S'0x05'
p638
sS'high_fuses'
p639
S'0xDA'
p640
sS'low_fuses'
p641
S'0xFF'
p642
sS'lock_bits'
p643
S'0x0F'
p644
sS'file'
p645
S'ATmegaBOOT_168_atmega328_pro_8MHz.hex'
p646
sS'path'
p647
S'atmega'
p648
sS'unlock_bits'
p649
S'0x3F'
p650
ssS'upload'
p651
(dp652
S'protocol'
p653
S'arduino'
p654
sS'maximum_size'
p655
S'30720'
p656
sS'speed'
p657
S'57600'
p658
ssS'build'
p659
(dp660
S'core'
p661
S'arduino'
p662
sS'mcu'
p663
S'atmega328p'
p664
sS'f_cpu'
p665
S'8000000L'
p666
sS'variant'
p667
S'standard'
p668
ssS'name'
p669
S'LilyPad Arduino w/ ATmega328'
p670
saa(lp671
S'lilypad'
p672
a(dp673
S'bootloader'
p674
(dp675
S'extended_fuses'
p676
S'0x00'
p677
sS'high_fuses'
p678
S'0xdd'
p679
sS'low_fuses'
p680
S'0xe2'
p681
sS'lock_bits'
p682
S'0x0F'
p683
sS'file'
p684
S'LilyPadBOOT_168.hex'
p685
sS'path'
p686
S'lilypad'
p687
sS'unlock_bits'
p688
S'0x3F'
p689
ssS'upload'
p690
(dp691
S'protocol'
p692
S'arduino'
p693
sS'maximum_size'
p694
S'14336'
p695
sS'speed'
p696
S'19200'
p697
ssS'build'
p698
(dp699
S'core'
p700
S'arduino'
p701
sS'mcu'
p702
S'atmega168'
p703
sS'f_cpu'
p704
S'8000000L'
p705
sS'variant'
p706
S'standard'
p707
ssS'name'
p708
S'LilyPad Arduino w/ ATmega168'
p709
saa(lp710
S'pro5v328'
p711
a(dp712
S'bootloader'
p713
(dp714
S'extended_fuses'
p715
S'0x05'
p716
sS'high_fuses'
p717
S'0xDA'
p718
sS'low_fuses'
p719
S'0xFF'
p720
sS'lock_bits'
p721
S'0x0F'
p722
sS'file'
p723
S'ATmegaBOOT_168_atmega328.hex'
p724
sS'path'
p725
S'atmega'
p726
sS'unlock_bits'
p727
S'0x3F'
p728
ssS'upload'
p729
(dp730
S'protocol'
p731
S'arduino'
p732
sS'maximum_size'
p733
S'30720'
p734
sS'speed'
p735
S'57600'
p736
ssS'build'
p737
(dp738
S'core'
p739
S'arduino'
p740
sS'mcu'
p741
S'atmega328p'
p742
sS'f_cpu'
p743
S'16000000L'
p744
sS'variant'
p745
S'standard'
p746
ssS'name'
p747
S'Arduino Pro or Pro Mini (5V, 16 MHz) w/ ATmega328'
p748
saa(lp749
S'pro5v'
p750
a(dp751
S'bootloader'
p752
(dp753
S'extended_fuses'
p754
S'0x00'
p755
sS'high_fuses'
p756
S'0xdd'
p757
sS'low_fuses'
p758
S'0xff'
p759
sS'lock_bits'
p760
S'0x0F'
p761
sS'file'
p762
S'ATmegaBOOT_168_diecimila.hex'
p763
sS'path'
p764
S'atmega'
p765
sS'unlock_bits'
p766
S'0x3F'
p767
ssS'upload'
p768
(dp769
S'protocol'
p770
S'arduino'
p771
sS'maximum_size'
p772
S'14336'
p773
sS'speed'
p774
S'19200'
p775
ssS'build'
p776
(dp777
S'core'
p778
S'arduino'
p779
sS'mcu'
p780
S'atmega168'
p781
sS'f_cpu'
p782
S'16000000L'
p783
sS'variant'
p784
S'standard'
p785
ssS'name'
p786
S'Arduino Pro or Pro Mini (5V, 16 MHz) w/ ATmega168'
p787
saa(lp788
S'pro328'
p789
a(dp790
S'bootloader'
p791
(dp792
S'extended_fuses'
p793
S'0x05'
p794
sS'high_fuses'
p795
S'0xDA'
p796
sS'low_fuses'
p797
S'0xFF'
p798
sS'lock_bits'
p799
S'0x0F'
p800
sS'file'
p801
S'ATmegaBOOT_168_atmega328_pro_8MHz.hex'
p802
sS'path'
p803
S'atmega'
p804
sS'unlock_bits'
p805
S'0x3F'
p806
ssS'upload'
p807
(dp808
S'protocol'
p809
S'arduino'
p810
sS'maximum_size'
p811
S'30720'
p812
sS'speed'
p813
S'57600'
p814
ssS'build'
p815
(dp816
S'core'
p817
S'arduino'
p818
sS'mcu'
p819
S'atmega328p'
p820
sS'f_cpu'
p821
S'8000000L'
p822
sS'variant'
p823
S'standard'
p824
ssS'name'
p825
S'Arduino Pro or Pro Mini (3.3V, 8 MHz) w/ ATmega328'
p826
saa(lp827
S'pro'
p828
a(dp829
S'bootloader'
p830
(dp831
S'extended_fuses'
p832
S'0x00'
p833
sS'high_fuses'
p834
S'0xdd'
p835
sS'low_fuses'
p836
S'0xc6'
p837
sS'lock_bits'
p838
S'0x0F'
p839
sS'file'
p840
S'ATmegaBOOT_168_pro_8MHz.hex'
p841
sS'path'
p842
S'atmega'
p843
sS'unlock_bits'
p844
S'0x3F'
p845
ssS'upload'
p846
(dp847
S'protocol'
p848
S'arduino'
p849
sS'maximum_size'
p850
S'14336'
p851
sS'speed'
p852
S'19200'
p853
ssS'build'
p854
(dp855
S'core'
p856
S'arduino'
p857
sS'mcu'
p858
S'atmega168'
p859
sS'f_cpu'
p860
S'8000000L'
p861
sS'variant'
p862
S'standard'
p863
ssS'name'
p864
S'Arduino Pro or Pro Mini (3.3V, 8 MHz) w/ ATmega168'
p865
saa(lp866
S'atmega168'
p867
a(dp868
S'bootloader'
p869
(dp870
S'extended_fuses'
p871
S'0x00'
p872
sS'high_fuses'
p873
S'0xdd'
p874
sS'low_fuses'
p875
S'0xff'
p876
sS'lock_bits'
p877
S'0x0F'
p878
sS'file'
p879
S'ATmegaBOOT_168_ng.hex'
p880
sS'path'
p881
S'atmega'
p882
sS'unlock_bits'
p883
S'0x3F'
p884
ssS'upload'
p885
(dp886
S'protocol'
p887
S'arduino'
p888
sS'maximum_size'
p889
S'14336'
p890
sS'speed'
p891
S'19200'
p892
ssS'build'
p893
(dp894
S'core'
p895
S'arduino'
p896
sS'mcu'
p897
S'atmega168'
p898
sS'f_cpu'
p899
S'16000000L'
p900
sS'variant'
p901
S'standard'
p902
ssS'name'
p903
S'Arduino NG or older w/ ATmega168'
p904
saa(lp905
S'atmega8'
p906
a(dp907
S'bootloader'
p908
(dp909
S'high_fuses'
p910
S'0xca'
p911
sS'low_fuses'
p912
S'0xdf'
p913
sS'lock_bits'
p914
S'0x0F'
p915
sS'file'
p916
S'ATmegaBOOT.hex'
p917
sS'path'
p918
S'atmega8'
p919
sS'unlock_bits'
p920
S'0x3F'
p921
ssS'upload'
p922
(dp923
S'protocol'
p924
S'arduino'
p925
sS'maximum_size'
p926
S'7168'
p927
sS'speed'
p928
S'19200'
p929
ssS'build'
p930
(dp931
S'core'
p932
S'arduino'
p933
sS'mcu'
p934
S'atmega8'
p935
sS'f_cpu'
p936
S'16000000L'
p937
sS'variant'
p938
S'standard'
p939
ssS'name'
p940
S'Arduino NG or older w/ ATmega8'
p941
saatp942
Rp943
(dp944
S'default'
p945
S'uno'
p946
sbtp947
a(S'cxx'
p948
S'/usr/bin/avr-g++'
p949
tp950
a.